target datalayout = "e-m:e-p270:32:32-p271:32:32-p272:64:64-i64:64-i128:128-f80:128-n8:16:32:64-S128"
target triple = "x86_64-pc-linux-gnu"

@hf_ecmp_cyclic_link_num = internal global i32 0, align 4
@hf_ecmp_cyclic_align = internal global i32 0, align 4
@hf_ecmp_cyclic_scheme = internal global i32 0, align 4
@hf_ecmp_cyclic_frame_time = internal global i32 0, align 4
@hf_ecmp_grandmaster = internal global i32 0, align 4
@hf_ecmp_data = internal global i32 0, align 4
@ett_ecmp_cyclic_scheme = internal global i32 0, align 4

; Function Attrs: null_pointer_is_valid sspstrong uwtable
define internal i32 @add_cyclic_frame(i32 noundef %0, ptr noundef %1, ptr noundef %2) #0 {
  %4 = alloca i32, align 4
  %5 = alloca ptr, align 8
  %6 = alloca ptr, align 8
  %7 = alloca i32, align 4
  %8 = alloca ptr, align 8
  %9 = alloca ptr, align 8
  store i32 %0, ptr %4, align 4
  store ptr %1, ptr %5, align 8
  store ptr %2, ptr %6, align 8
  call void @llvm.lifetime.start.p0(i64 4, ptr %7) #3
  call void @llvm.lifetime.start.p0(i64 8, ptr %8) #3
  store ptr null, ptr %8, align 8
  call void @llvm.lifetime.start.p0(i64 8, ptr %9) #3
  store ptr null, ptr %9, align 8
  %10 = load ptr, ptr %6, align 8
  %11 = load i32, ptr @hf_ecmp_cyclic_link_num, align 4
  %12 = load ptr, ptr %5, align 8
  %13 = load i32, ptr %4, align 4
  %14 = add i32 %13, 1
  store i32 %14, ptr %4, align 4
  %15 = call ptr @proto_tree_add_item(ptr noundef %10, i32 noundef %11, ptr noundef %12, i32 noundef %13, i32 noundef 1, i32 noundef 0)
  %16 = load ptr, ptr %6, align 8
  %17 = load i32, ptr @hf_ecmp_cyclic_align, align 4
  %18 = load ptr, ptr %5, align 8
  %19 = load i32, ptr %4, align 4
  %20 = add i32 %19, 1
  store i32 %20, ptr %4, align 4
  %21 = call ptr @proto_tree_add_item(ptr noundef %16, i32 noundef %17, ptr noundef %18, i32 noundef %19, i32 noundef 1, i32 noundef 0)
  %22 = load ptr, ptr %6, align 8
  %23 = load i32, ptr @hf_ecmp_cyclic_scheme, align 4
  %24 = load ptr, ptr %5, align 8
  %25 = load i32, ptr %4, align 4
  %26 = add i32 %25, 1
  store i32 %26, ptr %4, align 4
  %27 = call ptr @proto_tree_add_item_ret_uint(ptr noundef %22, i32 noundef %23, ptr noundef %24, i32 noundef %25, i32 noundef 1, i32 noundef 0, ptr noundef %7)
  store ptr %27, ptr %8, align 8
  %28 = load i32, ptr %7, align 4
  %29 = icmp eq i32 %28, 1
  br i1 %29, label %30, label %48

30:                                               ; preds = %3
  %31 = load ptr, ptr %8, align 8
  %32 = load i32, ptr @ett_ecmp_cyclic_scheme, align 4
  %33 = call ptr @proto_item_add_subtree(ptr noundef %31, i32 noundef %32)
  store ptr %33, ptr %9, align 8
  %34 = load ptr, ptr %9, align 8
  %35 = load i32, ptr @hf_ecmp_grandmaster, align 4
  %36 = load ptr, ptr %5, align 8
  %37 = load i32, ptr %4, align 4
  %38 = call ptr @proto_tree_add_item(ptr noundef %34, i32 noundef %35, ptr noundef %36, i32 noundef %37, i32 noundef 8, i32 noundef 0)
  %39 = load i32, ptr %4, align 4
  %40 = add i32 %39, 8
  store i32 %40, ptr %4, align 4
  %41 = load ptr, ptr %9, align 8
  %42 = load i32, ptr @hf_ecmp_cyclic_frame_time, align 4
  %43 = load ptr, ptr %5, align 8
  %44 = load i32, ptr %4, align 4
  %45 = call ptr @proto_tree_add_item(ptr noundef %41, i32 noundef %42, ptr noundef %43, i32 noundef %44, i32 noundef 8, i32 noundef 0)
  %46 = load i32, ptr %4, align 4
  %47 = add i32 %46, 8
  store i32 %47, ptr %4, align 4
  br label %48

48:                                               ; preds = %30, %3
  %49 = load ptr, ptr %6, align 8
  %50 = load i32, ptr @hf_ecmp_data, align 4
  %51 = load ptr, ptr %5, align 8
  %52 = load i32, ptr %4, align 4
  %53 = call ptr @proto_tree_add_item(ptr noundef %49, i32 noundef %50, ptr noundef %51, i32 noundef %52, i32 noundef -1, i32 noundef 0)
  %54 = load ptr, ptr %5, align 8
  %55 = call i32 @tvb_reported_length(ptr noundef %54)
  call void @llvm.lifetime.end.p0(i64 8, ptr %9) #3
  call void @llvm.lifetime.end.p0(i64 8, ptr %8) #3
  call void @llvm.lifetime.end.p0(i64 4, ptr %7) #3
  ret i32 %55
}