; Function Attrs: null_pointer_is_valid sspstrong uwtable
define internal fastcc void @add_cyclic_frame(i32 noundef %0, ptr noundef %1, ptr noundef %2) unnamed_addr #0 {
  %4 = alloca i32, align 4
  call void @llvm.lifetime.start.p0(i64 4, ptr nonnull %4) #3
  %5 = load i32, ptr @hf_ecmp_cyclic_link_num, align 4
  %6 = add i32 %0, 1
  %7 = tail call ptr @proto_tree_add_item(ptr noundef %2, i32 noundef %5, ptr noundef %1, i32 noundef %0, i32 noundef 1, i32 noundef 0)
  %8 = load i32, ptr @hf_ecmp_cyclic_align, align 4
  %9 = add i32 %0, 2
  %10 = tail call ptr @proto_tree_add_item(ptr noundef %2, i32 noundef %8, ptr noundef %1, i32 noundef %6, i32 noundef 1, i32 noundef 0)
  %11 = load i32, ptr @hf_ecmp_cyclic_scheme, align 4
  %12 = add i32 %0, 3
  %13 = call ptr @proto_tree_add_item_ret_uint(ptr noundef %2, i32 noundef %11, ptr noundef %1, i32 noundef %9, i32 noundef 1, i32 noundef 0, ptr noundef nonnull %4)
  %14 = load i32, ptr %4, align 4
  %15 = icmp eq i32 %14, 1
  br i1 %15, label %16, label %25

16:                                               ; preds = %3
  %17 = load i32, ptr @ett_ecmp_cyclic_scheme, align 4
  %18 = call ptr @proto_item_add_subtree(ptr noundef %13, i32 noundef %17)
  %19 = load i32, ptr @hf_ecmp_grandmaster, align 4
  %20 = call ptr @proto_tree_add_item(ptr noundef %18, i32 noundef %19, ptr noundef %1, i32 noundef %12, i32 noundef 8, i32 noundef 0)
  %21 = add i32 %0, 11
  %22 = load i32, ptr @hf_ecmp_cyclic_frame_time, align 4
  %23 = call ptr @proto_tree_add_item(ptr noundef %18, i32 noundef %22, ptr noundef %1, i32 noundef %21, i32 noundef 8, i32 noundef 0)
  %24 = add i32 %0, 19
  br label %25

25:                                               ; preds = %16, %3
  %.0 = phi i32 [ %24, %16 ], [ %12, %3 ]
  %26 = load i32, ptr @hf_ecmp_data, align 4
  %27 = call ptr @proto_tree_add_item(ptr noundef %2, i32 noundef %26, ptr noundef %1, i32 noundef %.0, i32 noundef -1, i32 noundef 0)
  %28 = call i32 @tvb_reported_length(ptr noundef %1)
  call void @llvm.lifetime.end.p0(i64 4, ptr nonnull %4) #3
  ret void
}